target datalayout = "e-m:e-p270:32:32-p271:32:32-p272:64:64-i64:64-i128:128-f80:128-n8:16:32:64-S128"
target triple = "x86_64-pc-linux-gnu"

; Function Attrs: nounwind uwtable
define hidden i32 @NET_IPv4MappedToIPv4(ptr noundef %0) #0 {
  %2 = alloca ptr, align 8
  store ptr %0, ptr %2, align 8
  %3 = load ptr, ptr %2, align 8
  %4 = getelementptr inbounds i8, ptr %3, i64 12
  %5 = load i8, ptr %4, align 1
  %6 = sext i8 %5 to i32
  %7 = and i32 %6, 255
  %8 = shl i32 %7, 24
  %9 = load ptr, ptr %2, align 8
  %10 = getelementptr inbounds i8, ptr %9, i64 13
  %11 = load i8, ptr %10, align 1
  %12 = sext i8 %11 to i32
  %13 = and i32 %12, 255
  %14 = shl i32 %13, 16
  %15 = or i32 %8, %14
  %16 = load ptr, ptr %2, align 8
  %17 = getelementptr inbounds i8, ptr %16, i64 14
  %18 = load i8, ptr %17, align 1
  %19 = sext i8 %18 to i32
  %20 = and i32 %19, 255
  %21 = shl i32 %20, 8
  %22 = or i32 %15, %21
  %23 = load ptr, ptr %2, align 8
  %24 = getelementptr inbounds i8, ptr %23, i64 15
  %25 = load i8, ptr %24, align 1
  %26 = sext i8 %25 to i32
  %27 = and i32 %26, 255
  %28 = or i32 %22, %27
  ret i32 %28
}