; Function Attrs: mustprogress nofree norecurse nosync nounwind willreturn memory(argmem: read) uwtable
define hidden i32 @NET_IPv4MappedToIPv4(ptr nocapture noundef readonly %0) local_unnamed_addr #12 {
  %2 = getelementptr inbounds i8, ptr %0, i64 12
  %3 = load i8, ptr %2, align 1
  %4 = zext i8 %3 to i32
  %5 = shl nuw i32 %4, 24
  %6 = getelementptr inbounds i8, ptr %0, i64 13
  %7 = load i8, ptr %6, align 1
  %8 = zext i8 %7 to i32
  %9 = shl nuw nsw i32 %8, 16
  %10 = or disjoint i32 %9, %5
  %11 = getelementptr inbounds i8, ptr %0, i64 14
  %12 = load i8, ptr %11, align 1
  %13 = zext i8 %12 to i32
  %14 = shl nuw nsw i32 %13, 8
  %15 = or disjoint i32 %10, %14
  %16 = getelementptr inbounds i8, ptr %0, i64 15
  %17 = load i8, ptr %16, align 1
  %18 = zext i8 %17 to i32
  %19 = or disjoint i32 %15, %18
  ret i32 %19
}